target datalayout = "e-m:e-p270:32:32-p271:32:32-p272:64:64-i64:64-i128:128-f80:128-n8:16:32:64-S128"
target triple = "x86_64-unknown-linux-gnu"

%struct.target_sigaction = type { i64, i64, i64, %struct.target_sigset_t }
%struct.target_sigset_t = type { [1 x i64] }
%struct.__sigset_t = type { [16 x i64] }
%struct.CPUState = type { %struct.DeviceState, ptr, i32, i32, ptr, i32, i8, i8, ptr, i8, i8, i8, i8, i8, i8, i8, i8, i32, i32, i32, i32, i64, i64, i64, [1 x %struct.__jmp_buf_tag], %struct.QemuMutex, %struct.anon, ptr, i32, ptr, ptr, ptr, ptr, i32, i32, %union.anon, %union.anon.0, %union.anon.1, ptr, ptr, i64, i32, ptr, ptr, ptr, i32, i64, i32, %struct.QemuLockCnt, [1 x i64], ptr, i32, i32, i32, i32, i32, ptr, i8, i8, i64, i8, i8, ptr, [8 x i8], [0 x i8], %struct.CPUNegativeOffsetState }
%struct.DeviceState = type { %struct.Object, ptr, ptr, i8, i8, i64, ptr, i32, i8, ptr, %struct.NamedGPIOListHead, %struct.NamedClockListHead, %struct.BusStateHead, i32, i32, i32, %struct.ResettableState, ptr, %struct.MemReentrancyGuard }
%struct.Object = type { ptr, ptr, ptr, i32, ptr }
%struct.NamedGPIOListHead = type { ptr }
%struct.NamedClockListHead = type { ptr }
%struct.BusStateHead = type { ptr }
%struct.ResettableState = type { i32, i8, i8 }
%struct.MemReentrancyGuard = type { i8 }
%struct.__jmp_buf_tag = type { [8 x i64], i32, %struct.__sigset_t }
%struct.QemuMutex = type { %union.pthread_mutex_t, i8 }
%union.pthread_mutex_t = type { %struct.__pthread_mutex_s }
%struct.__pthread_mutex_s = type { i32, i32, i32, i32, i32, i16, i16, %struct.__pthread_internal_list }
%struct.__pthread_internal_list = type { ptr, ptr }
%struct.anon = type { ptr, ptr }
%union.anon = type { %struct.QTailQLink }
%struct.QTailQLink = type { ptr, ptr }
%union.anon.0 = type { %struct.QTailQLink }
%union.anon.1 = type { %struct.QTailQLink }
%struct.QemuLockCnt = type { i32 }
%struct.CPUNegativeOffsetState = type { %struct.CPUTLB, %union.IcountDecr, i8, [11 x i8] }
%struct.CPUTLB = type { %struct.CPUTLBCommon, [16 x %struct.CPUTLBDesc], [16 x %struct.CPUTLBDescFast] }
%struct.CPUTLBCommon = type { %struct.QemuSpin, i16, i64, i64, i64 }
%struct.QemuSpin = type { i32 }
%struct.CPUTLBDesc = type { i64, i64, i64, i64, i64, i64, [8 x %union.CPUTLBEntry], [8 x %struct.CPUTLBEntryFull], ptr }
%union.CPUTLBEntry = type { %struct.anon.2 }
%struct.anon.2 = type { i64, i64, i64, i64 }
%struct.CPUTLBEntryFull = type { i64, i64, %struct.MemTxAttrs, i8, i8, [3 x i8], %union.anon.3 }
%struct.MemTxAttrs = type { i32 }
%union.anon.3 = type { %struct.anon.4 }
%struct.anon.4 = type { i8, i8, i8 }
%struct.CPUTLBDescFast = type { i64, ptr }
%union.IcountDecr = type { i32 }
%struct.TaskState = type { i32, i32, i64, i64, i64, i64, i32, ptr, ptr, %struct.emulated_sigtable, [64 x %struct.emulated_sigtable], %struct.__sigset_t, %struct.__sigset_t, i32, i32, %struct.target_sigaltstack, i64 }
%struct.emulated_sigtable = type { i32, %struct.target_siginfo }
%struct.target_siginfo = type { i32, i32, i32, %union.anon.6 }
%union.anon.6 = type { %struct.anon.10, [80 x i8] }
%struct.anon.10 = type { i32, i32, i32, i64, i64 }
%struct.target_sigaltstack = type { i64, i32, i64 }

@target_to_host_signal_table = internal global [65 x i8] zeroinitializer, align 16
@.str = private unnamed_addr constant [28 x i8] c"../qemu/linux-user/signal.c\00", align 1
@sigact_table = internal global [64 x %struct.target_sigaction] zeroinitializer, align 16
@__func__.process_pending_signals = private unnamed_addr constant [24 x i8] c"process_pending_signals\00", align 1

; Function Attrs: nounwind sspstrong uwtable
define internal ptr @env_cpu(ptr noundef %env) #0 {
entry:
  %env.addr = alloca ptr, align 8
  store ptr %env, ptr %env.addr, align 8
  %0 = load ptr, ptr %env.addr, align 8
  %add.ptr = getelementptr i8, ptr %0, i64 -10176
  ret ptr %add.ptr
}

; Function Attrs: nounwind sspstrong uwtable
define dso_local void @process_pending_signals(ptr noundef %cpu_env) #0 {
entry:
  %cpu_env.addr = alloca ptr, align 8
  %cpu = alloca ptr, align 8
  %sig = alloca i32, align 4
  %ts = alloca ptr, align 8
  %set = alloca %struct.__sigset_t, align 8
  %blocked_set = alloca ptr, align 8
  %tmp = alloca i32, align 4
  %atomic-temp = alloca i32, align 4
  %.atomictmp = alloca i32, align 4
  store ptr %cpu_env, ptr %cpu_env.addr, align 8
  %0 = load ptr, ptr %cpu_env.addr, align 8
  %call = call ptr @env_cpu(ptr noundef %0)
  store ptr %call, ptr %cpu, align 8
  %1 = load ptr, ptr %cpu, align 8
  %opaque = getelementptr inbounds %struct.CPUState, ptr %1, i32 0, i32 39
  %2 = load ptr, ptr %opaque, align 16
  store ptr %2, ptr %ts, align 8
  br label %while.cond

while.cond:                                       ; preds = %do.end50, %entry
  br label %while.cond1

while.cond1:                                      ; preds = %do.end, %while.cond
  br i1 false, label %while.body, label %while.end

while.body:                                       ; preds = %while.cond1
  br label %do.body

do.body:                                          ; preds = %while.body
  call void @g_assertion_message_expr(ptr noundef null, ptr noundef @.str, i32 noundef 1262, ptr noundef @__func__.process_pending_signals, ptr noundef null) #10
  unreachable

do.end:                                           ; No predecessors!
  br label %while.cond1

while.end:                                        ; preds = %while.cond1
  %3 = load ptr, ptr %ts, align 8
  %signal_pending = getelementptr inbounds %struct.TaskState, ptr %3, i32 0, i32 14
  %4 = load atomic i32, ptr %signal_pending monotonic, align 4
  store i32 %4, ptr %atomic-temp, align 4
  %5 = load i32, ptr %atomic-temp, align 4
  store i32 %5, ptr %tmp, align 4
  %6 = load i32, ptr %tmp, align 4
  %tobool = icmp ne i32 %6, 0
  br i1 %tobool, label %while.body2, label %while.end56

while.body2:                                      ; preds = %while.end
  %call3 = call i32 @sigfillset(ptr noundef %set) #9
  %call4 = call i32 @sigprocmask(i32 noundef 2, ptr noundef %set, ptr noundef null) #9
  br label %restart_scan

restart_scan:                                     ; preds = %if.then37, %while.body2
  %7 = load ptr, ptr %ts, align 8
  %sync_signal = getelementptr inbounds %struct.TaskState, ptr %7, i32 0, i32 9
  %pending = getelementptr inbounds %struct.emulated_sigtable, ptr %sync_signal, i32 0, i32 0
  %8 = load i32, ptr %pending, align 8
  store i32 %8, ptr %sig, align 4
  %9 = load i32, ptr %sig, align 4
  %tobool5 = icmp ne i32 %9, 0
  br i1 %tobool5, label %if.then, label %if.end22

if.then:                                          ; preds = %restart_scan
  %10 = load ptr, ptr %ts, align 8
  %signal_mask = getelementptr inbounds %struct.TaskState, ptr %10, i32 0, i32 11
  %11 = load i32, ptr %sig, align 4
  %idxprom = sext i32 %11 to i64
  %arrayidx = getelementptr [65 x i8], ptr @target_to_host_signal_table, i64 0, i64 %idxprom
  %12 = load i8, ptr %arrayidx, align 1
  %conv = zext i8 %12 to i32
  %call6 = call i32 @sigismember(ptr noundef %signal_mask, i32 noundef %conv) #9
  %tobool7 = icmp ne i32 %call6, 0
  br i1 %tobool7, label %if.then11, label %lor.lhs.false

lor.lhs.false:                                    ; preds = %if.then
  %13 = load i32, ptr %sig, align 4
  %sub = sub i32 %13, 1
  %idxprom8 = sext i32 %sub to i64
  %arrayidx9 = getelementptr [64 x %struct.target_sigaction], ptr @sigact_table, i64 0, i64 %idxprom8
  %_sa_handler = getelementptr inbounds %struct.target_sigaction, ptr %arrayidx9, i32 0, i32 0
  %14 = load i64, ptr %_sa_handler, align 16
  %cmp = icmp eq i64 %14, 1
  br i1 %cmp, label %if.then11, label %if.end

if.then11:                                        ; preds = %lor.lhs.false, %if.then
  %15 = load ptr, ptr %ts, align 8
  %signal_mask12 = getelementptr inbounds %struct.TaskState, ptr %15, i32 0, i32 11
  %16 = load i32, ptr %sig, align 4
  %idxprom13 = sext i32 %16 to i64
  %arrayidx14 = getelementptr [65 x i8], ptr @target_to_host_signal_table, i64 0, i64 %idxprom13
  %17 = load i8, ptr %arrayidx14, align 1
  %conv15 = zext i8 %17 to i32
  %call16 = call i32 @sigdelset(ptr noundef %signal_mask12, i32 noundef %conv15) #9
  %18 = load i32, ptr %sig, align 4
  %sub17 = sub i32 %18, 1
  %idxprom18 = sext i32 %sub17 to i64
  %arrayidx19 = getelementptr [64 x %struct.target_sigaction], ptr @sigact_table, i64 0, i64 %idxprom18
  %_sa_handler20 = getelementptr inbounds %struct.target_sigaction, ptr %arrayidx19, i32 0, i32 0
  store i64 0, ptr %_sa_handler20, align 16
  br label %if.end

if.end:                                           ; preds = %if.then11, %lor.lhs.false
  %19 = load ptr, ptr %cpu_env.addr, align 8
  %20 = load i32, ptr %sig, align 4
  %21 = load ptr, ptr %ts, align 8
  %sync_signal21 = getelementptr inbounds %struct.TaskState, ptr %21, i32 0, i32 9
  call void @handle_pending_signal(ptr noundef %19, i32 noundef %20, ptr noundef %sync_signal21)
  br label %if.end22

if.end22:                                         ; preds = %if.end, %restart_scan
  store i32 1, ptr %sig, align 4
  br label %for.cond

for.cond:                                         ; preds = %for.inc, %if.end22
  %22 = load i32, ptr %sig, align 4
  %cmp23 = icmp sle i32 %22, 64
  br i1 %cmp23, label %for.body, label %for.end

for.body:                                         ; preds = %for.cond
  %23 = load ptr, ptr %ts, align 8
  %in_sigsuspend = getelementptr inbounds %struct.TaskState, ptr %23, i32 0, i32 13
  %24 = load i32, ptr %in_sigsuspend, align 8
  %tobool25 = icmp ne i32 %24, 0
  br i1 %tobool25, label %cond.true, label %cond.false

cond.true:                                        ; preds = %for.body
  %25 = load ptr, ptr %ts, align 8
  %sigsuspend_mask = getelementptr inbounds %struct.TaskState, ptr %25, i32 0, i32 12
  br label %cond.end

cond.false:                                       ; preds = %for.body
  %26 = load ptr, ptr %ts, align 8
  %signal_mask26 = getelementptr inbounds %struct.TaskState, ptr %26, i32 0, i32 11
  br label %cond.end

cond.end:                                         ; preds = %cond.false, %cond.true
  %cond = phi ptr [ %sigsuspend_mask, %cond.true ], [ %signal_mask26, %cond.false ]
  store ptr %cond, ptr %blocked_set, align 8
  %27 = load ptr, ptr %ts, align 8
  %sigtab = getelementptr inbounds %struct.TaskState, ptr %27, i32 0, i32 10
  %28 = load i32, ptr %sig, align 4
  %sub27 = sub i32 %28, 1
  %idxprom28 = sext i32 %sub27 to i64
  %arrayidx29 = getelementptr [64 x %struct.emulated_sigtable], ptr %sigtab, i64 0, i64 %idxprom28
  %pending30 = getelementptr inbounds %struct.emulated_sigtable, ptr %arrayidx29, i32 0, i32 0
  %29 = load i32, ptr %pending30, align 8
  %tobool31 = icmp ne i32 %29, 0
  br i1 %tobool31, label %land.lhs.true, label %if.end42

land.lhs.true:                                    ; preds = %cond.end
  %30 = load ptr, ptr %blocked_set, align 8
  %31 = load i32, ptr %sig, align 4
  %idxprom32 = sext i32 %31 to i64
  %arrayidx33 = getelementptr [65 x i8], ptr @target_to_host_signal_table, i64 0, i64 %idxprom32
  %32 = load i8, ptr %arrayidx33, align 1
  %conv34 = zext i8 %32 to i32
  %call35 = call i32 @sigismember(ptr noundef %30, i32 noundef %conv34) #9
  %tobool36 = icmp ne i32 %call35, 0
  br i1 %tobool36, label %if.end42, label %if.then37

if.then37:                                        ; preds = %land.lhs.true
  %33 = load ptr, ptr %cpu_env.addr, align 8
  %34 = load i32, ptr %sig, align 4
  %35 = load ptr, ptr %ts, align 8
  %sigtab38 = getelementptr inbounds %struct.TaskState, ptr %35, i32 0, i32 10
  %36 = load i32, ptr %sig, align 4
  %sub39 = sub i32 %36, 1
  %idxprom40 = sext i32 %sub39 to i64
  %arrayidx41 = getelementptr [64 x %struct.emulated_sigtable], ptr %sigtab38, i64 0, i64 %idxprom40
  call void @handle_pending_signal(ptr noundef %33, i32 noundef %34, ptr noundef %arrayidx41)
  br label %restart_scan

if.end42:                                         ; preds = %land.lhs.true, %cond.end
  br label %for.inc

for.inc:                                          ; preds = %if.end42
  %37 = load i32, ptr %sig, align 4
  %inc = add i32 %37, 1
  store i32 %inc, ptr %sig, align 4
  br label %for.cond, !llvm.loop !17

for.end:                                          ; preds = %for.cond
  br label %do.body43

do.body43:                                        ; preds = %for.end
  br label %while.cond44

while.cond44:                                     ; preds = %do.end47, %do.body43
  br i1 false, label %while.body45, label %while.end48

while.body45:                                     ; preds = %while.cond44
  br label %do.body46

do.body46:                                        ; preds = %while.body45
  call void @g_assertion_message_expr(ptr noundef null, ptr noundef @.str, i32 noundef 1305, ptr noundef @__func__.process_pending_signals, ptr noundef null) #10
  unreachable

do.end47:                                         ; No predecessors!
  br label %while.cond44

while.end48:                                      ; preds = %while.cond44
  %38 = load ptr, ptr %ts, align 8
  %signal_pending49 = getelementptr inbounds %struct.TaskState, ptr %38, i32 0, i32 14
  store i32 0, ptr %.atomictmp, align 4
  %39 = load i32, ptr %.atomictmp, align 4
  store atomic i32 %39, ptr %signal_pending49 monotonic, align 4
  br label %do.end50

do.end50:                                         ; preds = %while.end48
  %40 = load ptr, ptr %ts, align 8
  %in_sigsuspend51 = getelementptr inbounds %struct.TaskState, ptr %40, i32 0, i32 13
  store i32 0, ptr %in_sigsuspend51, align 8
  %41 = load ptr, ptr %ts, align 8
  %signal_mask52 = getelementptr inbounds %struct.TaskState, ptr %41, i32 0, i32 11
  call void @llvm.memcpy.p0.p0.i64(ptr align 8 %set, ptr align 8 %signal_mask52, i64 128, i1 false)
  %call53 = call i32 @sigdelset(ptr noundef %set, i32 noundef 11) #9
  %call54 = call i32 @sigdelset(ptr noundef %set, i32 noundef 7) #9
  %call55 = call i32 @sigprocmask(i32 noundef 2, ptr noundef %set, ptr noundef null) #9
  br label %while.cond, !llvm.loop !18

while.end56:                                      ; preds = %while.end
  %42 = load ptr, ptr %ts, align 8
  %in_sigsuspend57 = getelementptr inbounds %struct.TaskState, ptr %42, i32 0, i32 13
  store i32 0, ptr %in_sigsuspend57, align 8
  ret void
}