; Function Attrs: nounwind sspstrong uwtable
define dso_local void @process_pending_signals(ptr noundef %cpu_env) local_unnamed_addr #1 {
entry:
  %set = alloca %struct.__sigset_t, align 8
  %opaque = getelementptr i8, ptr %cpu_env, i64 -9552
  %0 = load ptr, ptr %opaque, align 16
  %signal_pending = getelementptr inbounds nuw i8, ptr %0, i64 9164
  %1 = load atomic i32, ptr %signal_pending monotonic, align 4
  %tobool.not29 = icmp eq i32 %1, 0
  br i1 %tobool.not29, label %while.end56, label %while.body2.lr.ph

while.body2.lr.ph:                                ; preds = %entry
  %sync_signal = getelementptr inbounds nuw i8, ptr %0, i64 64
  %signal_mask = getelementptr inbounds nuw i8, ptr %0, i64 8904
  %sigtab = getelementptr inbounds nuw i8, ptr %0, i64 200
  %in_sigsuspend = getelementptr inbounds nuw i8, ptr %0, i64 9160
  br label %while.body2

while.body2:                                      ; preds = %while.body2.lr.ph, %while.end48
  %call3 = call i32 @sigfillset(ptr noundef nonnull %set) #16
  %call4 = call i32 @sigprocmask(i32 noundef 2, ptr noundef nonnull %set, ptr noundef null) #16
  br label %restart_scan

restart_scan:                                     ; preds = %if.then37, %while.body2
  %2 = load i32, ptr %sync_signal, align 8
  %tobool5.not = icmp eq i32 %2, 0
  br i1 %tobool5.not, label %for.body.preheader, label %if.then

if.then:                                          ; preds = %restart_scan
  %idxprom = sext i32 %2 to i64
  %arrayidx = getelementptr [65 x i8], ptr @target_to_host_signal_table, i64 0, i64 %idxprom
  %3 = load i8, ptr %arrayidx, align 1
  %conv = zext i8 %3 to i32
  %call6 = call i32 @sigismember(ptr noundef nonnull %signal_mask, i32 noundef %conv) #16
  %tobool7.not = icmp eq i32 %call6, 0
  %sub = add i32 %2, -1
  %idxprom8 = sext i32 %sub to i64
  br i1 %tobool7.not, label %lor.lhs.false, label %if.then11

lor.lhs.false:                                    ; preds = %if.then
  %arrayidx9 = getelementptr [64 x %struct.target_sigaction], ptr @sigact_table, i64 0, i64 %idxprom8
  %4 = load i64, ptr %arrayidx9, align 16
  %cmp = icmp eq i64 %4, 1
  br i1 %cmp, label %if.then11, label %if.end

if.then11:                                        ; preds = %if.then, %lor.lhs.false
  %5 = load i8, ptr %arrayidx, align 1
  %conv15 = zext i8 %5 to i32
  %call16 = call i32 @sigdelset(ptr noundef nonnull %signal_mask, i32 noundef %conv15) #16
  %arrayidx19 = getelementptr [64 x %struct.target_sigaction], ptr @sigact_table, i64 0, i64 %idxprom8
  store i64 0, ptr %arrayidx19, align 16
  br label %if.end

if.end:                                           ; preds = %if.then11, %lor.lhs.false
  call fastcc void @handle_pending_signal(ptr noundef %cpu_env, i32 noundef %2, ptr noundef nonnull %sync_signal)
  br label %for.body.preheader

for.body.preheader:                               ; preds = %if.end, %restart_scan
  br label %for.body

for.body:                                         ; preds = %for.body.preheader, %for.inc
  %indvars.iv = phi i64 [ %indvars.iv.next, %for.inc ], [ 1, %for.body.preheader ]
  %6 = add nsw i64 %indvars.iv, -1
  %arrayidx29 = getelementptr [64 x %struct.emulated_sigtable], ptr %sigtab, i64 0, i64 %6
  %7 = load i32, ptr %arrayidx29, align 8
  %tobool31.not = icmp eq i32 %7, 0
  br i1 %tobool31.not, label %for.inc, label %land.lhs.true

land.lhs.true:                                    ; preds = %for.body
  %8 = load i32, ptr %in_sigsuspend, align 8
  %tobool25.not = icmp eq i32 %8, 0
  %cond.v = select i1 %tobool25.not, i64 8904, i64 9032
  %cond = getelementptr inbounds nuw i8, ptr %0, i64 %cond.v
  %arrayidx33 = getelementptr [65 x i8], ptr @target_to_host_signal_table, i64 0, i64 %indvars.iv
  %9 = load i8, ptr %arrayidx33, align 1
  %conv34 = zext i8 %9 to i32
  %call35 = call i32 @sigismember(ptr noundef nonnull %cond, i32 noundef %conv34) #16
  %tobool36.not = icmp eq i32 %call35, 0
  br i1 %tobool36.not, label %if.then37, label %for.inc

if.then37:                                        ; preds = %land.lhs.true
  %10 = trunc nuw nsw i64 %indvars.iv to i32
  call fastcc void @handle_pending_signal(ptr noundef %cpu_env, i32 noundef %10, ptr noundef nonnull %arrayidx29)
  br label %restart_scan

for.inc:                                          ; preds = %for.body, %land.lhs.true
  %indvars.iv.next = add nuw nsw i64 %indvars.iv, 1
  %exitcond.not = icmp eq i64 %indvars.iv.next, 65
  br i1 %exitcond.not, label %while.end48, label %for.body, !llvm.loop !14

while.end48:                                      ; preds = %for.inc
  store atomic i32 0, ptr %signal_pending monotonic, align 4
  store i32 0, ptr %in_sigsuspend, align 8
  call void @llvm.memcpy.p0.p0.i64(ptr noundef nonnull align 8 dereferenceable(128) %set, ptr noundef nonnull align 8 dereferenceable(128) %signal_mask, i64 128, i1 false)
  %call53 = call i32 @sigdelset(ptr noundef nonnull %set, i32 noundef 11) #16
  %call54 = call i32 @sigdelset(ptr noundef nonnull %set, i32 noundef 7) #16
  %call55 = call i32 @sigprocmask(i32 noundef 2, ptr noundef nonnull %set, ptr noundef null) #16
  %11 = load atomic i32, ptr %signal_pending monotonic, align 4
  %tobool.not = icmp eq i32 %11, 0
  br i1 %tobool.not, label %while.end56, label %while.body2, !llvm.loop !15

while.end56:                                      ; preds = %while.end48, %entry
  %in_sigsuspend57 = getelementptr inbounds nuw i8, ptr %0, i64 9160
  store i32 0, ptr %in_sigsuspend57, align 8
  ret void
}